target datalayout = "e-m:e-p270:32:32-p271:32:32-p272:64:64-i64:64-i128:128-f80:128-n8:16:32:64-S128"
target triple = "x86_64-pc-linux-gnu"

%struct.aiString = type { i32, [1024 x i8] }
%class.aiMatrix4x4t = type { float, float, float, float, float, float, float, float, float, float, float, float, float, float, float, float }
%struct.aiNode = type { %struct.aiString, %class.aiMatrix4x4t, ptr, i32, ptr, i32, ptr, ptr }

; Function Attrs: mustprogress uwtable
define hidden noundef i64 @_Z11count_nodesPK6aiNodeS1_(ptr noundef %0, ptr noundef %1) #3 {
  %3 = alloca ptr, align 8
  %4 = alloca ptr, align 8
  %5 = alloca i64, align 8
  %6 = alloca i64, align 8
  store ptr %0, ptr %3, align 8
  store ptr %1, ptr %4, align 8
  call void @llvm.lifetime.start.p0(i64 8, ptr %5) #4
  %7 = load ptr, ptr %3, align 8
  %8 = load ptr, ptr %4, align 8
  %9 = icmp eq ptr %7, %8
  br i1 %9, label %10, label %15

10:                                               ; preds = %2
  %11 = load ptr, ptr %3, align 8
  %12 = getelementptr inbounds nuw %struct.aiNode, ptr %11, i32 0, i32 5
  %13 = load i32, ptr %12, align 8
  %14 = zext i32 %13 to i64
  store i64 %14, ptr %5, align 8
  br label %28

15:                                               ; preds = %2
  %16 = load ptr, ptr %3, align 8
  %17 = getelementptr inbounds nuw %struct.aiNode, ptr %16, i32 0, i32 5
  %18 = load i32, ptr %17, align 8
  %19 = icmp ugt i32 %18, 1
  br i1 %19, label %20, label %26

20:                                               ; preds = %15
  %21 = load ptr, ptr %3, align 8
  %22 = getelementptr inbounds nuw %struct.aiNode, ptr %21, i32 0, i32 5
  %23 = load i32, ptr %22, align 8
  %24 = add i32 %23, 1
  %25 = zext i32 %24 to i64
  store i64 %25, ptr %5, align 8
  br label %27

26:                                               ; preds = %15
  store i64 1, ptr %5, align 8
  br label %27

27:                                               ; preds = %26, %20
  br label %28

28:                                               ; preds = %27, %10
  call void @llvm.lifetime.start.p0(i64 8, ptr %6) #4
  store i64 0, ptr %6, align 8
  br label %29

29:                                               ; preds = %48, %28
  %30 = load i64, ptr %6, align 8
  %31 = load ptr, ptr %3, align 8
  %32 = getelementptr inbounds nuw %struct.aiNode, ptr %31, i32 0, i32 3
  %33 = load i32, ptr %32, align 8
  %34 = zext i32 %33 to i64
  %35 = icmp ult i64 %30, %34
  br i1 %35, label %37, label %36

36:                                               ; preds = %29
  call void @llvm.lifetime.end.p0(i64 8, ptr %6) #4
  br label %51

37:                                               ; preds = %29
  %38 = load ptr, ptr %3, align 8
  %39 = getelementptr inbounds nuw %struct.aiNode, ptr %38, i32 0, i32 4
  %40 = load ptr, ptr %39, align 8
  %41 = load i64, ptr %6, align 8
  %42 = getelementptr inbounds nuw ptr, ptr %40, i64 %41
  %43 = load ptr, ptr %42, align 8
  %44 = load ptr, ptr %4, align 8
  %45 = call noundef i64 @_Z11count_nodesPK6aiNodeS1_(ptr noundef %43, ptr noundef %44)
  %46 = load i64, ptr %5, align 8
  %47 = add i64 %46, %45
  store i64 %47, ptr %5, align 8
  br label %48

48:                                               ; preds = %37
  %49 = load i64, ptr %6, align 8
  %50 = add i64 %49, 1
  store i64 %50, ptr %6, align 8
  br label %29, !llvm.loop !43

51:                                               ; preds = %36
  %52 = load i64, ptr %5, align 8
  call void @llvm.lifetime.end.p0(i64 8, ptr %5) #4
  ret i64 %52
}