; Function Attrs: mustprogress nofree nosync nounwind willreturn memory(read, inaccessiblemem: none) uwtable
define hidden noundef i64 @_Z11count_nodesPK6aiNodeS1_(ptr noundef readonly captures(address) %0, ptr noundef captures(address) %1) local_unnamed_addr #13 {
  %3 = icmp eq ptr %0, %1
  %4 = getelementptr inbounds nuw i8, ptr %0, i64 1120
  %5 = load i32, ptr %4, align 8
  %6 = icmp ugt i32 %5, 1
  %7 = add i32 %5, 1
  %spec.select = select i1 %6, i32 %7, i32 1
  %.012.shrunk = select i1 %3, i32 %5, i32 %spec.select
  %.012 = zext i32 %.012.shrunk to i64
  %8 = getelementptr inbounds nuw i8, ptr %0, i64 1104
  %9 = load i32, ptr %8, align 8
  %10 = zext i32 %9 to i64
  %.not = icmp eq i32 %9, 0
  br i1 %.not, label %._crit_edge, label %.lr.ph

.lr.ph:                                           ; preds = %2
  %11 = getelementptr inbounds nuw i8, ptr %0, i64 1112
  %12 = load ptr, ptr %11, align 8
  br label %13

._crit_edge:                                      ; preds = %13, %2
  %.1.lcssa = phi i64 [ %.012, %2 ], [ %17, %13 ]
  ret i64 %.1.lcssa

13:                                               ; preds = %.lr.ph, %13
  %.017 = phi i64 [ 0, %.lr.ph ], [ %18, %13 ]
  %.116 = phi i64 [ %.012, %.lr.ph ], [ %17, %13 ]
  %14 = getelementptr inbounds nuw ptr, ptr %12, i64 %.017
  %15 = load ptr, ptr %14, align 8
  %16 = tail call noundef i64 @_Z11count_nodesPK6aiNodeS1_(ptr noundef %15, ptr noundef %1)
  %17 = add i64 %16, %.116
  %18 = add nuw nsw i64 %.017, 1
  %exitcond.not = icmp eq i64 %18, %10
  br i1 %exitcond.not, label %._crit_edge, label %13, !llvm.loop !251
}